target datalayout = "e-m:e-p270:32:32-p271:32:32-p272:64:64-i64:64-i128:128-f80:128-n8:16:32:64-S128"
target triple = "x86_64-pc-linux-gnu"

%struct.Dar_Lib_t_ = type { ptr, i32, i32, [222 x i32], [222 x ptr], ptr, i32, ptr, [222 x ptr], ptr, [222 x ptr], ptr, [222 x ptr], [222 x i32], [222 x ptr], ptr, i32, i32, i32, [222 x i32], [222 x ptr], ptr, i32, [222 x i32], [222 x ptr], ptr, i32, ptr, i32, ptr, ptr, ptr, ptr, ptr }
%struct.Dar_LibDat_t_ = type { %union.anon, i32, i32, float, i8, [3 x i8] }
%union.anon = type { ptr }
%struct.Aig_Obj_t_ = type { %union.anon.0, ptr, ptr, i64, i32, i32, %union.anon.1 }
%union.anon.0 = type { ptr }
%union.anon.1 = type { ptr }

@s_DarLib = internal global ptr null, align 8

; Function Attrs: nounwind uwtable
define internal ptr @Aig_Regular(ptr noundef %0) #0 {
  %2 = alloca ptr, align 8
  store ptr %0, ptr %2, align 8
  %3 = load ptr, ptr %2, align 8
  %4 = ptrtoint ptr %3 to i64
  %5 = and i64 %4, -2
  %6 = inttoptr i64 %5 to ptr
  ret ptr %6
}

; Function Attrs: nounwind uwtable
define i32 @Dar_LibCutMarkMffc(ptr noundef %0, ptr noundef %1, i32 noundef %2, ptr noundef %3) #0 {
  %5 = alloca ptr, align 8
  %6 = alloca ptr, align 8
  %7 = alloca i32, align 4
  %8 = alloca ptr, align 8
  %9 = alloca i32, align 4
  %10 = alloca i32, align 4
  store ptr %0, ptr %5, align 8
  store ptr %1, ptr %6, align 8
  store i32 %2, ptr %7, align 4
  store ptr %3, ptr %8, align 8
  store i32 0, ptr %9, align 4
  br label %11

11:                                               ; preds = %37, %4
  %12 = load i32, ptr %9, align 4
  %13 = load i32, ptr %7, align 4
  %14 = icmp slt i32 %12, %13
  br i1 %14, label %15, label %40

15:                                               ; preds = %11
  %16 = load ptr, ptr @s_DarLib, align 8
  %17 = getelementptr inbounds %struct.Dar_Lib_t_, ptr %16, i32 0, i32 27
  %18 = load ptr, ptr %17, align 8
  %19 = load i32, ptr %9, align 4
  %20 = sext i32 %19 to i64
  %21 = getelementptr inbounds %struct.Dar_LibDat_t_, ptr %18, i64 %20
  %22 = getelementptr inbounds %struct.Dar_LibDat_t_, ptr %21, i32 0, i32 0
  %23 = load ptr, ptr %22, align 8
  %24 = call ptr @Aig_Regular(ptr noundef %23)
  %25 = getelementptr inbounds %struct.Aig_Obj_t_, ptr %24, i32 0, i32 3
  %26 = load i64, ptr %25, align 8
  %27 = lshr i64 %26, 6
  %28 = and i64 %27, 67108863
  %29 = trunc i64 %28 to i32
  %30 = add i32 %29, 1
  %31 = zext i32 %30 to i64
  %32 = load i64, ptr %25, align 8
  %33 = and i64 %31, 67108863
  %34 = shl i64 %33, 6
  %35 = and i64 %32, -4294967233
  %36 = or i64 %35, %34
  store i64 %36, ptr %25, align 8
  br label %37

37:                                               ; preds = %15
  %38 = load i32, ptr %9, align 4
  %39 = add nsw i32 %38, 1
  store i32 %39, ptr %9, align 4
  br label %11, !llvm.loop !44

40:                                               ; preds = %11
  %41 = load ptr, ptr %5, align 8
  %42 = load ptr, ptr %6, align 8
  %43 = load ptr, ptr %8, align 8
  %44 = call i32 @Aig_NodeMffcLabel(ptr noundef %41, ptr noundef %42, ptr noundef %43)
  store i32 %44, ptr %10, align 4
  store i32 0, ptr %9, align 4
  br label %45

45:                                               ; preds = %71, %40
  %46 = load i32, ptr %9, align 4
  %47 = load i32, ptr %7, align 4
  %48 = icmp slt i32 %46, %47
  br i1 %48, label %49, label %74

49:                                               ; preds = %45
  %50 = load ptr, ptr @s_DarLib, align 8
  %51 = getelementptr inbounds %struct.Dar_Lib_t_, ptr %50, i32 0, i32 27
  %52 = load ptr, ptr %51, align 8
  %53 = load i32, ptr %9, align 4
  %54 = sext i32 %53 to i64
  %55 = getelementptr inbounds %struct.Dar_LibDat_t_, ptr %52, i64 %54
  %56 = getelementptr inbounds %struct.Dar_LibDat_t_, ptr %55, i32 0, i32 0
  %57 = load ptr, ptr %56, align 8
  %58 = call ptr @Aig_Regular(ptr noundef %57)
  %59 = getelementptr inbounds %struct.Aig_Obj_t_, ptr %58, i32 0, i32 3
  %60 = load i64, ptr %59, align 8
  %61 = lshr i64 %60, 6
  %62 = and i64 %61, 67108863
  %63 = trunc i64 %62 to i32
  %64 = add i32 %63, -1
  %65 = zext i32 %64 to i64
  %66 = load i64, ptr %59, align 8
  %67 = and i64 %65, 67108863
  %68 = shl i64 %67, 6
  %69 = and i64 %66, -4294967233
  %70 = or i64 %69, %68
  store i64 %70, ptr %59, align 8
  br label %71

71:                                               ; preds = %49
  %72 = load i32, ptr %9, align 4
  %73 = add nsw i32 %72, 1
  store i32 %73, ptr %9, align 4
  br label %45, !llvm.loop !45

74:                                               ; preds = %45
  %75 = load i32, ptr %10, align 4
  ret i32 %75
}