; Function Attrs: nounwind uwtable
define i32 @Dar_LibCutMarkMffc(ptr noundef %0, ptr noundef %1, i32 noundef %2, ptr noundef %3) local_unnamed_addr #0 {
  %5 = icmp sgt i32 %2, 0
  br i1 %5, label %.lr.ph, label %._crit_edge.thread

._crit_edge.thread:                               ; preds = %4
  %6 = tail call i32 @Aig_NodeMffcLabel(ptr noundef %0, ptr noundef %1, ptr noundef %3) #20
  br label %._crit_edge16

.lr.ph:                                           ; preds = %4
  %7 = load ptr, ptr @s_DarLib, align 8
  %8 = getelementptr inbounds nuw i8, ptr %7, i64 16096
  %wide.trip.count = zext nneg i32 %2 to i64
  br label %9

9:                                                ; preds = %.lr.ph, %9
  %indvars.iv = phi i64 [ 0, %.lr.ph ], [ %indvars.iv.next, %9 ]
  %10 = load ptr, ptr %8, align 8
  %11 = getelementptr inbounds nuw %struct.Dar_LibDat_t_, ptr %10, i64 %indvars.iv
  %12 = load ptr, ptr %11, align 8
  %13 = ptrtoint ptr %12 to i64
  %14 = and i64 %13, -2
  %15 = inttoptr i64 %14 to ptr
  %16 = getelementptr inbounds nuw i8, ptr %15, i64 24
  %17 = load i64, ptr %16, align 8
  %18 = add i64 %17, 64
  %19 = and i64 %18, 4294967232
  %20 = and i64 %17, -4294967233
  %21 = or disjoint i64 %19, %20
  store i64 %21, ptr %16, align 8
  %indvars.iv.next = add nuw nsw i64 %indvars.iv, 1
  %exitcond.not = icmp eq i64 %indvars.iv.next, %wide.trip.count
  br i1 %exitcond.not, label %._crit_edge, label %9, !llvm.loop !36

._crit_edge:                                      ; preds = %9
  %22 = tail call i32 @Aig_NodeMffcLabel(ptr noundef %0, ptr noundef %1, ptr noundef %3) #20
  %23 = load ptr, ptr @s_DarLib, align 8
  %24 = getelementptr inbounds nuw i8, ptr %23, i64 16096
  %wide.trip.count21 = zext nneg i32 %2 to i64
  br label %25

25:                                               ; preds = %._crit_edge, %25
  %indvars.iv18 = phi i64 [ 0, %._crit_edge ], [ %indvars.iv.next19, %25 ]
  %26 = load ptr, ptr %24, align 8
  %27 = getelementptr inbounds nuw %struct.Dar_LibDat_t_, ptr %26, i64 %indvars.iv18
  %28 = load ptr, ptr %27, align 8
  %29 = ptrtoint ptr %28 to i64
  %30 = and i64 %29, -2
  %31 = inttoptr i64 %30 to ptr
  %32 = getelementptr inbounds nuw i8, ptr %31, i64 24
  %33 = load i64, ptr %32, align 8
  %34 = add i64 %33, 4294967232
  %35 = and i64 %34, 4294967232
  %36 = and i64 %33, -4294967233
  %37 = or disjoint i64 %35, %36
  store i64 %37, ptr %32, align 8
  %indvars.iv.next19 = add nuw nsw i64 %indvars.iv18, 1
  %exitcond22.not = icmp eq i64 %indvars.iv.next19, %wide.trip.count21
  br i1 %exitcond22.not, label %._crit_edge16, label %25, !llvm.loop !37

._crit_edge16:                                    ; preds = %25, %._crit_edge.thread
  %38 = phi i32 [ %6, %._crit_edge.thread ], [ %22, %25 ]
  ret i32 %38
}